target datalayout = "e-m:e-p270:32:32-p271:32:32-p272:64:64-i64:64-i128:128-f80:128-n8:16:32:64-S128"
target triple = "x86_64-pc-linux-gnu"

; Function Attrs: nounwind uwtable
define hidden i32 @SSL_get_ex_new_index(i64 noundef %0, ptr noundef %1, ptr noundef %2, ptr noundef %3, ptr noundef %4) #0 {
  %6 = alloca i32, align 4
  %7 = alloca i64, align 8
  %8 = alloca ptr, align 8
  %9 = alloca ptr, align 8
  %10 = alloca ptr, align 8
  %11 = alloca ptr, align 8
  %12 = alloca i32, align 4
  %13 = alloca i32, align 4
  store i64 %0, ptr %7, align 8, !tbaa !174
  store ptr %1, ptr %8, align 8, !tbaa !147
  store ptr %2, ptr %9, align 8, !tbaa !220
  store ptr %3, ptr %10, align 8, !tbaa !147
  store ptr %4, ptr %11, align 8, !tbaa !147
  call void @llvm.lifetime.start.p0(i64 4, ptr %12) #8
  %14 = load i64, ptr %7, align 8, !tbaa !174
  %15 = load ptr, ptr %8, align 8, !tbaa !147
  %16 = load ptr, ptr %10, align 8, !tbaa !147
  %17 = load ptr, ptr %11, align 8, !tbaa !147
  %18 = call i32 @CRYPTO_get_ex_new_index(ptr noundef @g_ex_data_class_ssl, ptr noundef %12, i64 noundef %14, ptr noundef %15, ptr noundef %16, ptr noundef %17)
  %19 = icmp ne i32 %18, 0
  br i1 %19, label %21, label %20

20:                                               ; preds = %5
  store i32 -1, ptr %6, align 4
  store i32 1, ptr %13, align 4
  br label %23

21:                                               ; preds = %5
  %22 = load i32, ptr %12, align 4, !tbaa !61
  store i32 %22, ptr %6, align 4
  store i32 1, ptr %13, align 4
  br label %23

23:                                               ; preds = %21, %20
  call void @llvm.lifetime.end.p0(i64 4, ptr %12) #8
  %24 = load i32, ptr %6, align 4
  ret i32 %24
}