; Function Attrs: nounwind uwtable
define hidden i32 @SSL_get_ex_new_index(i64 noundef %0, ptr noundef %1, ptr noundef readnone captures(none) %2, ptr noundef %3, ptr noundef %4) local_unnamed_addr #0 {
  %6 = alloca i32, align 4
  call void @llvm.lifetime.start.p0(i64 4, ptr nonnull %6) #21
  %7 = call i32 @CRYPTO_get_ex_new_index(ptr noundef nonnull @g_ex_data_class_ssl, ptr noundef nonnull %6, i64 noundef %0, ptr noundef %1, ptr noundef %3, ptr noundef %4) #21
  %.not = icmp eq i32 %7, 0
  %8 = load i32, ptr %6, align 4
  %.0 = select i1 %.not, i32 -1, i32 %8
  call void @llvm.lifetime.end.p0(i64 4, ptr nonnull %6) #21
  ret i32 %.0
}